; ModuleID = '22/645.c'
source_filename = "22/645.c"
target datalayout = "e-m:e-p270:32:32-p271:32:32-p272:64:64-i64:64-f80:128-n8:16:32:64-S128"
target triple = "x86_64-pc-linux-gnu"

@.str = private unnamed_addr constant [5 x i8] c"%d%c\00", align 1
@.str.1 = private unnamed_addr constant [4 x i8] c"No\0A\00", align 1
@.str.2 = private unnamed_addr constant [4 x i8] c"%d\0A\00", align 1

; Function Attrs: noinline nounwind uwtable
define dso_local void @main() #0 {
  %1 = alloca [300 x i32], align 16
  %2 = alloca i32, align 4
  %3 = alloca i32, align 4
  %4 = alloca i32, align 4
  %5 = alloca i32, align 4
  %6 = alloca i32, align 4
  %7 = alloca i8, align 1
  %8 = bitcast [300 x i32]* %1 to i8*
  call void @llvm.memset.p0i8.i64(i8* align 16 %8, i8 0, i64 1200, i1 false)
  store i32 0, i32* %2, align 4
  br label %9

9:                                                ; preds = %24, %0
  %10 = load i32, i32* %2, align 4
  %11 = icmp slt i32 %10, 300
  br i1 %11, label %12, label %27

12:                                               ; preds = %9
  %13 = load i32, i32* %2, align 4
  %14 = sext i32 %13 to i64
  %15 = getelementptr inbounds [300 x i32], [300 x i32]* %1, i64 0, i64 %14
  %16 = call i32 (i8*, ...) @__isoc99_scanf(i8* getelementptr inbounds ([5 x i8], [5 x i8]* @.str, i64 0, i64 0), i32* %15, i8* %7)
  %17 = load i8, i8* %7, align 1
  %18 = sext i8 %17 to i32
  %19 = icmp eq i32 %18, 10
  br i1 %19, label %20, label %23

20:                                               ; preds = %12
  %21 = load i32, i32* %2, align 4
  %22 = add nsw i32 %21, 1
  store i32 %22, i32* %4, align 4
  br label %27

23:                                               ; preds = %12
  br label %24

24:                                               ; preds = %23
  %25 = load i32, i32* %2, align 4
  %26 = add nsw i32 %25, 1
  store i32 %26, i32* %2, align 4
  br label %9

27:                                               ; preds = %20, %9
  store i32 0, i32* %2, align 4
  br label %28

28:                                               ; preds = %47, %27
  %29 = load i32, i32* %2, align 4
  %30 = load i32, i32* %4, align 4
  %31 = sub nsw i32 %30, 1
  %32 = icmp slt i32 %29, %31
  br i1 %32, label %33, label %50

33:                                               ; preds = %28
  %34 = load i32, i32* %2, align 4
  %35 = sext i32 %34 to i64
  %36 = getelementptr inbounds [300 x i32], [300 x i32]* %1, i64 0, i64 %35
  %37 = load i32, i32* %36, align 4
  %38 = load i32, i32* %2, align 4
  %39 = add nsw i32 %38, 1
  %40 = sext i32 %39 to i64
  %41 = getelementptr inbounds [300 x i32], [300 x i32]* %1, i64 0, i64 %40
  %42 = load i32, i32* %41, align 4
  %43 = icmp eq i32 %37, %42
  br i1 %43, label %44, label %45

44:                                               ; preds = %33
  br label %46

45:                                               ; preds = %33
  br label %50

46:                                               ; preds = %44
  br label %47

47:                                               ; preds = %46
  %48 = load i32, i32* %2, align 4
  %49 = add nsw i32 %48, 1
  store i32 %49, i32* %2, align 4
  br label %28

50:                                               ; preds = %45, %28
  %51 = load i32, i32* %2, align 4
  %52 = load i32, i32* %4, align 4
  %53 = sub nsw i32 %52, 1
  %54 = icmp eq i32 %51, %53
  br i1 %54, label %55, label %57

55:                                               ; preds = %50
  %56 = call i32 (i8*, ...) @printf(i8* getelementptr inbounds ([4 x i8], [4 x i8]* @.str.1, i64 0, i64 0))
  br label %140

57:                                               ; preds = %50
  store i32 0, i32* %2, align 4
  br label %58

58:                                               ; preds = %108, %57
  %59 = load i32, i32* %2, align 4
  %60 = load i32, i32* %4, align 4
  %61 = sub nsw i32 %60, 1
  %62 = icmp slt i32 %59, %61
  br i1 %62, label %63, label %111

63:                                               ; preds = %58
  %64 = load i32, i32* %2, align 4
  store i32 %64, i32* %5, align 4
  %65 = load i32, i32* %2, align 4
  %66 = add nsw i32 %65, 1
  store i32 %66, i32* %3, align 4
  br label %67

67:                                               ; preds = %84, %63
  %68 = load i32, i32* %3, align 4
  %69 = load i32, i32* %4, align 4
  %70 = icmp slt i32 %68, %69
  br i1 %70, label %71, label %87

71:                                               ; preds = %67
  %72 = load i32, i32* %5, align 4
  %73 = sext i32 %72 to i64
  %74 = getelementptr inbounds [300 x i32], [300 x i32]* %1, i64 0, i64 %73
  %75 = load i32, i32* %74, align 4
  %76 = load i32, i32* %3, align 4
  %77 = sext i32 %76 to i64
  %78 = getelementptr inbounds [300 x i32], [300 x i32]* %1, i64 0, i64 %77
  %79 = load i32, i32* %78, align 4
  %80 = icmp slt i32 %75, %79
  br i1 %80, label %81, label %83

81:                                               ; preds = %71
  %82 = load i32, i32* %3, align 4
  store i32 %82, i32* %5, align 4
  br label %83

83:                                               ; preds = %81, %71
  br label %84

84:                                               ; preds = %83
  %85 = load i32, i32* %3, align 4
  %86 = add nsw i32 %85, 1
  store i32 %86, i32* %3, align 4
  br label %67

87:                                               ; preds = %67
  %88 = load i32, i32* %5, align 4
  %89 = load i32, i32* %2, align 4
  %90 = icmp ne i32 %88, %89
  br i1 %90, label %91, label %107

91:                                               ; preds = %87
  %92 = load i32, i32* %5, align 4
  %93 = sext i32 %92 to i64
  %94 = getelementptr inbounds [300 x i32], [300 x i32]* %1, i64 0, i64 %93
  %95 = load i32, i32* %94, align 4
  store i32 %95, i32* %6, align 4
  %96 = load i32, i32* %2, align 4
  %97 = sext i32 %96 to i64
  %98 = getelementptr inbounds [300 x i32], [300 x i32]* %1, i64 0, i64 %97
  %99 = load i32, i32* %98, align 4
  %100 = load i32, i32* %5, align 4
  %101 = sext i32 %100 to i64
  %102 = getelementptr inbounds [300 x i32], [300 x i32]* %1, i64 0, i64 %101
  store i32 %99, i32* %102, align 4
  %103 = load i32, i32* %6, align 4
  %104 = load i32, i32* %2, align 4
  %105 = sext i32 %104 to i64
  %106 = getelementptr inbounds [300 x i32], [300 x i32]* %1, i64 0, i64 %105
  store i32 %103, i32* %106, align 4
  br label %107

107:                                              ; preds = %91, %87
  br label %108

108:                                              ; preds = %107
  %109 = load i32, i32* %2, align 4
  %110 = add nsw i32 %109, 1
  store i32 %110, i32* %2, align 4
  br label %58

111:                                              ; preds = %58
  store i32 0, i32* %2, align 4
  br label %112

112:                                              ; preds = %130, %111
  %113 = load i32, i32* %2, align 4
  %114 = load i32, i32* %4, align 4
  %115 = icmp slt i32 %113, %114
  br i1 %115, label %116, label %133

116:                                              ; preds = %112
  %117 = load i32, i32* %2, align 4
  %118 = sext i32 %117 to i64
  %119 = getelementptr inbounds [300 x i32], [300 x i32]* %1, i64 0, i64 %118
  %120 = load i32, i32* %119, align 4
  %121 = load i32, i32* %2, align 4
  %122 = add nsw i32 %121, 1
  %123 = sext i32 %122 to i64
  %124 = getelementptr inbounds [300 x i32], [300 x i32]* %1, i64 0, i64 %123
  %125 = load i32, i32* %124, align 4
  %126 = icmp eq i32 %120, %125
  br i1 %126, label %127, label %128

127:                                              ; preds = %116
  br label %129

128:                                              ; preds = %116
  br label %133

129:                                              ; preds = %127
  br label %130

130:                                              ; preds = %129
  %131 = load i32, i32* %2, align 4
  %132 = add nsw i32 %131, 1
  store i32 %132, i32* %2, align 4
  br label %112

133:                                              ; preds = %128, %112
  %134 = load i32, i32* %2, align 4
  %135 = add nsw i32 %134, 1
  %136 = sext i32 %135 to i64
  %137 = getelementptr inbounds [300 x i32], [300 x i32]* %1, i64 0, i64 %136
  %138 = load i32, i32* %137, align 4
  %139 = call i32 (i8*, ...) @printf(i8* getelementptr inbounds ([4 x i8], [4 x i8]* @.str.2, i64 0, i64 0), i32 %138)
  br label %140

140:                                              ; preds = %133, %55
  ret void
}

; Function Attrs: argmemonly nounwind willreturn
declare void @llvm.memset.p0i8.i64(i8* nocapture writeonly, i8, i64, i1 immarg) #1

declare dso_local i32 @__isoc99_scanf(i8*, ...) #2

declare dso_local i32 @printf(i8*, ...) #2


!llvm.module.flags = !{!0}
!llvm.ident = !{!1}

!0 = !{i32 1, !"wchar_size", i32 4}
!1 = !{!"clang version 10.0.0-4ubuntu1 "}
